target datalayout = "e-m:e-p270:32:32-p271:32:32-p272:64:64-i64:64-i128:128-f80:128-n8:16:32:64-S128"
target triple = "x86_64-pc-linux-gnu"

%"struct.duckdb_miniz::mz_zip_archive" = type { i64, i64, i32, i32, i32, i32, i64, ptr, ptr, ptr, ptr, ptr, ptr, ptr, ptr, ptr }
%"struct.duckdb_miniz::mz_zip_internal_state_tag" = type { %"struct.duckdb_miniz::mz_zip_array", %"struct.duckdb_miniz::mz_zip_array", %"struct.duckdb_miniz::mz_zip_array", i32, i32, i32, ptr, i64, ptr, i64, i64 }
%"struct.duckdb_miniz::mz_zip_array" = type { ptr, i64, i64, i32 }
%"struct.duckdb_miniz::mz_zip_archive_file_stat" = type { i32, i64, i16, i16, i16, i16, i32, i64, i64, i16, i32, i64, i32, i32, i32, i32, [512 x i8], [512 x i8] }

; Function Attrs: alwaysinline mustprogress nounwind uwtable
define internal noundef i32 @_ZN12duckdb_minizL24mz_zip_array_range_checkEPKNS_12mz_zip_arrayEj(ptr noundef %0, i32 noundef %1) #8 {
  %3 = alloca ptr, align 8
  %4 = alloca i32, align 4
  store ptr %0, ptr %3, align 8, !tbaa !19
  store i32 %1, ptr %4, align 4, !tbaa !10
  %5 = load i32, ptr %4, align 4, !tbaa !10
  ret i32 %5
}

; Function Attrs: alwaysinline mustprogress uwtable
define internal noundef ptr @_ZN12duckdb_minizL14mz_zip_get_cdhEPNS_14mz_zip_archiveEj(ptr noundef %0, i32 noundef %1) #9 {
  %3 = alloca ptr, align 8
  %4 = alloca ptr, align 8
  %5 = alloca i32, align 4
  store ptr %0, ptr %4, align 8, !tbaa !19
  store i32 %1, ptr %5, align 4, !tbaa !10
  %6 = load ptr, ptr %4, align 8, !tbaa !19
  %7 = icmp ne ptr %6, null
  br i1 %7, label %8, label %19

8:                                                ; preds = %2
  %9 = load ptr, ptr %4, align 8, !tbaa !19
  %10 = getelementptr inbounds nuw %"struct.duckdb_miniz::mz_zip_archive", ptr %9, i32 0, i32 15
  %11 = load ptr, ptr %10, align 8, !tbaa !227
  %12 = icmp ne ptr %11, null
  br i1 %12, label %13, label %19

13:                                               ; preds = %8
  %14 = load i32, ptr %5, align 4, !tbaa !10
  %15 = load ptr, ptr %4, align 8, !tbaa !19
  %16 = getelementptr inbounds nuw %"struct.duckdb_miniz::mz_zip_archive", ptr %15, i32 0, i32 2
  %17 = load i32, ptr %16, align 8, !tbaa !245
  %18 = icmp uge i32 %14, %17
  br i1 %18, label %19, label %20

19:                                               ; preds = %13, %8, %2
  store ptr null, ptr %3, align 8
  br label %49

20:                                               ; preds = %13
  %21 = load ptr, ptr %4, align 8, !tbaa !19
  %22 = getelementptr inbounds nuw %"struct.duckdb_miniz::mz_zip_archive", ptr %21, i32 0, i32 15
  %23 = load ptr, ptr %22, align 8, !tbaa !227
  %24 = getelementptr inbounds nuw %"struct.duckdb_miniz::mz_zip_internal_state_tag", ptr %23, i32 0, i32 0
  %25 = getelementptr inbounds nuw %"struct.duckdb_miniz::mz_zip_array", ptr %24, i32 0, i32 0
  %26 = load ptr, ptr %25, align 8, !tbaa !255
  %27 = load ptr, ptr %4, align 8, !tbaa !19
  %28 = getelementptr inbounds nuw %"struct.duckdb_miniz::mz_zip_archive", ptr %27, i32 0, i32 15
  %29 = load ptr, ptr %28, align 8, !tbaa !227
  %30 = getelementptr inbounds nuw %"struct.duckdb_miniz::mz_zip_internal_state_tag", ptr %29, i32 0, i32 0
  %31 = load ptr, ptr %4, align 8, !tbaa !19
  %32 = getelementptr inbounds nuw %"struct.duckdb_miniz::mz_zip_archive", ptr %31, i32 0, i32 15
  %33 = load ptr, ptr %32, align 8, !tbaa !227
  %34 = getelementptr inbounds nuw %"struct.duckdb_miniz::mz_zip_internal_state_tag", ptr %33, i32 0, i32 1
  %35 = getelementptr inbounds nuw %"struct.duckdb_miniz::mz_zip_array", ptr %34, i32 0, i32 0
  %36 = load ptr, ptr %35, align 8, !tbaa !256
  %37 = load ptr, ptr %4, align 8, !tbaa !19
  %38 = getelementptr inbounds nuw %"struct.duckdb_miniz::mz_zip_archive", ptr %37, i32 0, i32 15
  %39 = load ptr, ptr %38, align 8, !tbaa !227
  %40 = getelementptr inbounds nuw %"struct.duckdb_miniz::mz_zip_internal_state_tag", ptr %39, i32 0, i32 1
  %41 = load i32, ptr %5, align 4, !tbaa !10
  %42 = call noundef i32 @_ZN12duckdb_minizL24mz_zip_array_range_checkEPKNS_12mz_zip_arrayEj(ptr noundef %40, i32 noundef %41)
  %43 = zext i32 %42 to i64
  %44 = getelementptr inbounds nuw i32, ptr %36, i64 %43
  %45 = load i32, ptr %44, align 4, !tbaa !10
  %46 = call noundef i32 @_ZN12duckdb_minizL24mz_zip_array_range_checkEPKNS_12mz_zip_arrayEj(ptr noundef %30, i32 noundef %45)
  %47 = zext i32 %46 to i64
  %48 = getelementptr inbounds nuw i8, ptr %26, i64 %47
  store ptr %48, ptr %3, align 8
  br label %49

49:                                               ; preds = %20, %19
  %50 = load ptr, ptr %3, align 8
  ret ptr %50
}

; Function Attrs: mustprogress uwtable
define noundef i32 @_ZN12duckdb_miniz23mz_zip_reader_file_statEPNS_14mz_zip_archiveEjPNS_24mz_zip_archive_file_statE(ptr noundef %0, i32 noundef %1, ptr noundef %2) #5 {
  %4 = alloca ptr, align 8
  %5 = alloca i32, align 4
  %6 = alloca ptr, align 8
  store ptr %0, ptr %4, align 8, !tbaa !19
  store i32 %1, ptr %5, align 4, !tbaa !10
  store ptr %2, ptr %6, align 8, !tbaa !19
  %7 = load ptr, ptr %4, align 8, !tbaa !19
  %8 = load i32, ptr %5, align 4, !tbaa !10
  %9 = load ptr, ptr %4, align 8, !tbaa !19
  %10 = load i32, ptr %5, align 4, !tbaa !10
  %11 = call noundef ptr @_ZN12duckdb_minizL14mz_zip_get_cdhEPNS_14mz_zip_archiveEj(ptr noundef %9, i32 noundef %10)
  %12 = load ptr, ptr %6, align 8, !tbaa !19
  %13 = call noundef i32 @_ZN12duckdb_minizL25mz_zip_file_stat_internalEPNS_14mz_zip_archiveEjPKhPNS_24mz_zip_archive_file_statEPi(ptr noundef %7, i32 noundef %8, ptr noundef %11, ptr noundef %12, ptr noundef null)
  ret i32 %13
}

; Function Attrs: alwaysinline mustprogress nounwind uwtable
define internal noundef i32 @_ZN12duckdb_minizL16mz_zip_set_errorEPNS_14mz_zip_archiveENS_12mz_zip_errorE(ptr noundef %0, i32 noundef %1) #8 {
  %3 = alloca ptr, align 8
  %4 = alloca i32, align 4
  store ptr %0, ptr %3, align 8, !tbaa !19
  store i32 %1, ptr %4, align 4, !tbaa !242
  %5 = load ptr, ptr %3, align 8, !tbaa !19
  %6 = icmp ne ptr %5, null
  br i1 %6, label %7, label %11

7:                                                ; preds = %2
  %8 = load i32, ptr %4, align 4, !tbaa !242
  %9 = load ptr, ptr %3, align 8, !tbaa !19
  %10 = getelementptr inbounds nuw %"struct.duckdb_miniz::mz_zip_archive", ptr %9, i32 0, i32 5
  store i32 %8, ptr %10, align 4, !tbaa !236
  br label %11

11:                                               ; preds = %7, %2
  ret i32 0
}

; Function Attrs: mustprogress uwtable
define noundef i32 @_ZN12duckdb_miniz23mz_zip_validate_archiveEPNS_14mz_zip_archiveEj(ptr noundef %0, i32 noundef %1) #5 {
  %3 = alloca i32, align 4
  %4 = alloca ptr, align 8
  %5 = alloca i32, align 4
  %6 = alloca ptr, align 8
  %7 = alloca i32, align 4
  %8 = alloca i32, align 4
  %9 = alloca i32, align 4
  %10 = alloca %"struct.duckdb_miniz::mz_zip_archive_file_stat", align 8
  store ptr %0, ptr %4, align 8, !tbaa !19
  store i32 %1, ptr %5, align 4, !tbaa !10
  call void @llvm.lifetime.start.p0(i64 8, ptr %6) #11
  call void @llvm.lifetime.start.p0(i64 4, ptr %7) #11
  %11 = load ptr, ptr %4, align 8, !tbaa !19
  %12 = icmp ne ptr %11, null
  br i1 %12, label %13, label %33

13:                                               ; preds = %2
  %14 = load ptr, ptr %4, align 8, !tbaa !19
  %15 = getelementptr inbounds nuw %"struct.duckdb_miniz::mz_zip_archive", ptr %14, i32 0, i32 15
  %16 = load ptr, ptr %15, align 8, !tbaa !227
  %17 = icmp ne ptr %16, null
  br i1 %17, label %18, label %33

18:                                               ; preds = %13
  %19 = load ptr, ptr %4, align 8, !tbaa !19
  %20 = getelementptr inbounds nuw %"struct.duckdb_miniz::mz_zip_archive", ptr %19, i32 0, i32 7
  %21 = load ptr, ptr %20, align 8, !tbaa !233
  %22 = icmp ne ptr %21, null
  br i1 %22, label %23, label %33

23:                                               ; preds = %18
  %24 = load ptr, ptr %4, align 8, !tbaa !19
  %25 = getelementptr inbounds nuw %"struct.duckdb_miniz::mz_zip_archive", ptr %24, i32 0, i32 8
  %26 = load ptr, ptr %25, align 8, !tbaa !234
  %27 = icmp ne ptr %26, null
  br i1 %27, label %28, label %33

28:                                               ; preds = %23
  %29 = load ptr, ptr %4, align 8, !tbaa !19
  %30 = getelementptr inbounds nuw %"struct.duckdb_miniz::mz_zip_archive", ptr %29, i32 0, i32 11
  %31 = load ptr, ptr %30, align 8, !tbaa !239
  %32 = icmp ne ptr %31, null
  br i1 %32, label %36, label %33

33:                                               ; preds = %28, %23, %18, %13, %2
  %34 = load ptr, ptr %4, align 8, !tbaa !19
  %35 = call noundef i32 @_ZN12duckdb_minizL16mz_zip_set_errorEPNS_14mz_zip_archiveENS_12mz_zip_errorE(ptr noundef %34, i32 noundef 24)
  store i32 %35, ptr %3, align 4
  store i32 1, ptr %8, align 4
  br label %126

36:                                               ; preds = %28
  %37 = load ptr, ptr %4, align 8, !tbaa !19
  %38 = getelementptr inbounds nuw %"struct.duckdb_miniz::mz_zip_archive", ptr %37, i32 0, i32 15
  %39 = load ptr, ptr %38, align 8, !tbaa !227
  store ptr %39, ptr %6, align 8, !tbaa !237
  %40 = load ptr, ptr %6, align 8, !tbaa !237
  %41 = getelementptr inbounds nuw %"struct.duckdb_miniz::mz_zip_internal_state_tag", ptr %40, i32 0, i32 4
  %42 = load i32, ptr %41, align 4, !tbaa !252
  %43 = icmp ne i32 %42, 0
  br i1 %43, label %61, label %44

44:                                               ; preds = %36
  %45 = load ptr, ptr %4, align 8, !tbaa !19
  %46 = getelementptr inbounds nuw %"struct.duckdb_miniz::mz_zip_archive", ptr %45, i32 0, i32 2
  %47 = load i32, ptr %46, align 8, !tbaa !245
  %48 = icmp ugt i32 %47, 65535
  br i1 %48, label %49, label %52

49:                                               ; preds = %44
  %50 = load ptr, ptr %4, align 8, !tbaa !19
  %51 = call noundef i32 @_ZN12duckdb_minizL16mz_zip_set_errorEPNS_14mz_zip_archiveENS_12mz_zip_errorE(ptr noundef %50, i32 noundef 29)
  store i32 %51, ptr %3, align 4
  store i32 1, ptr %8, align 4
  br label %126

52:                                               ; preds = %44
  %53 = load ptr, ptr %4, align 8, !tbaa !19
  %54 = getelementptr inbounds nuw %"struct.duckdb_miniz::mz_zip_archive", ptr %53, i32 0, i32 0
  %55 = load i64, ptr %54, align 8, !tbaa !241
  %56 = icmp ugt i64 %55, 4294967295
  br i1 %56, label %57, label %60

57:                                               ; preds = %52
  %58 = load ptr, ptr %4, align 8, !tbaa !19
  %59 = call noundef i32 @_ZN12duckdb_minizL16mz_zip_set_errorEPNS_14mz_zip_archiveENS_12mz_zip_errorE(ptr noundef %58, i32 noundef 29)
  store i32 %59, ptr %3, align 4
  store i32 1, ptr %8, align 4
  br label %126

60:                                               ; preds = %52
  br label %79

61:                                               ; preds = %36
  %62 = load ptr, ptr %4, align 8, !tbaa !19
  %63 = getelementptr inbounds nuw %"struct.duckdb_miniz::mz_zip_archive", ptr %62, i32 0, i32 2
  %64 = load i32, ptr %63, align 8, !tbaa !245
  %65 = icmp uge i32 %64, -1
  br i1 %65, label %66, label %69

66:                                               ; preds = %61
  %67 = load ptr, ptr %4, align 8, !tbaa !19
  %68 = call noundef i32 @_ZN12duckdb_minizL16mz_zip_set_errorEPNS_14mz_zip_archiveENS_12mz_zip_errorE(ptr noundef %67, i32 noundef 29)
  store i32 %68, ptr %3, align 4
  store i32 1, ptr %8, align 4
  br label %126

69:                                               ; preds = %61
  %70 = load ptr, ptr %6, align 8, !tbaa !237
  %71 = getelementptr inbounds nuw %"struct.duckdb_miniz::mz_zip_internal_state_tag", ptr %70, i32 0, i32 0
  %72 = getelementptr inbounds nuw %"struct.duckdb_miniz::mz_zip_array", ptr %71, i32 0, i32 1
  %73 = load i64, ptr %72, align 8, !tbaa !318
  %74 = icmp uge i64 %73, 4294967295
  br i1 %74, label %75, label %78

75:                                               ; preds = %69
  %76 = load ptr, ptr %4, align 8, !tbaa !19
  %77 = call noundef i32 @_ZN12duckdb_minizL16mz_zip_set_errorEPNS_14mz_zip_archiveENS_12mz_zip_errorE(ptr noundef %76, i32 noundef 29)
  store i32 %77, ptr %3, align 4
  store i32 1, ptr %8, align 4
  br label %126

78:                                               ; preds = %69
  br label %79

79:                                               ; preds = %78, %60
  store i32 0, ptr %7, align 4, !tbaa !10
  br label %80

80:                                               ; preds = %122, %79
  %81 = load i32, ptr %7, align 4, !tbaa !10
  %82 = load ptr, ptr %4, align 8, !tbaa !19
  %83 = getelementptr inbounds nuw %"struct.duckdb_miniz::mz_zip_archive", ptr %82, i32 0, i32 2
  %84 = load i32, ptr %83, align 8, !tbaa !245
  %85 = icmp ult i32 %81, %84
  br i1 %85, label %86, label %125

86:                                               ; preds = %80
  %87 = load i32, ptr %5, align 4, !tbaa !10
  %88 = and i32 4096, %87
  %89 = icmp ne i32 %88, 0
  br i1 %89, label %90, label %114

90:                                               ; preds = %86
  call void @llvm.lifetime.start.p0(i64 4, ptr %9) #11
  call void @llvm.lifetime.start.p0(i64 1104, ptr %10) #11
  %91 = load ptr, ptr %4, align 8, !tbaa !19
  %92 = load i32, ptr %7, align 4, !tbaa !10
  %93 = call noundef i32 @_ZN12duckdb_miniz23mz_zip_reader_file_statEPNS_14mz_zip_archiveEjPNS_24mz_zip_archive_file_statE(ptr noundef %91, i32 noundef %92, ptr noundef %10)
  %94 = icmp ne i32 %93, 0
  br i1 %94, label %96, label %95

95:                                               ; preds = %90
  store i32 0, ptr %3, align 4
  store i32 1, ptr %8, align 4
  br label %111

96:                                               ; preds = %90
  %97 = load ptr, ptr %4, align 8, !tbaa !19
  %98 = getelementptr inbounds nuw %"struct.duckdb_miniz::mz_zip_archive_file_stat", ptr %10, i32 0, i32 16
  %99 = getelementptr inbounds [512 x i8], ptr %98, i64 0, i64 0
  %100 = call noundef i32 @_ZN12duckdb_miniz28mz_zip_reader_locate_file_v2EPNS_14mz_zip_archiveEPKcS3_jPj(ptr noundef %97, ptr noundef %99, ptr noundef null, i32 noundef 0, ptr noundef %9)
  %101 = icmp ne i32 %100, 0
  br i1 %101, label %103, label %102

102:                                              ; preds = %96
  store i32 0, ptr %3, align 4
  store i32 1, ptr %8, align 4
  br label %111

103:                                              ; preds = %96
  %104 = load i32, ptr %9, align 4, !tbaa !10
  %105 = load i32, ptr %7, align 4, !tbaa !10
  %106 = icmp ne i32 %104, %105
  br i1 %106, label %107, label %110

107:                                              ; preds = %103
  %108 = load ptr, ptr %4, align 8, !tbaa !19
  %109 = call noundef i32 @_ZN12duckdb_minizL16mz_zip_set_errorEPNS_14mz_zip_archiveENS_12mz_zip_errorE(ptr noundef %108, i32 noundef 30)
  store i32 %109, ptr %3, align 4
  store i32 1, ptr %8, align 4
  br label %111

110:                                              ; preds = %103
  store i32 0, ptr %8, align 4
  br label %111

111:                                              ; preds = %110, %107, %102, %95
  call void @llvm.lifetime.end.p0(i64 1104, ptr %10) #11
  call void @llvm.lifetime.end.p0(i64 4, ptr %9) #11
  %112 = load i32, ptr %8, align 4
  switch i32 %112, label %126 [
    i32 0, label %113
  ]

113:                                              ; preds = %111
  br label %114

114:                                              ; preds = %113, %86
  %115 = load ptr, ptr %4, align 8, !tbaa !19
  %116 = load i32, ptr %7, align 4, !tbaa !10
  %117 = load i32, ptr %5, align 4, !tbaa !10
  %118 = call noundef i32 @_ZN12duckdb_miniz20mz_zip_validate_fileEPNS_14mz_zip_archiveEjj(ptr noundef %115, i32 noundef %116, i32 noundef %117)
  %119 = icmp ne i32 %118, 0
  br i1 %119, label %121, label %120

120:                                              ; preds = %114
  store i32 0, ptr %3, align 4
  store i32 1, ptr %8, align 4
  br label %126

121:                                              ; preds = %114
  br label %122

122:                                              ; preds = %121
  %123 = load i32, ptr %7, align 4, !tbaa !10
  %124 = add i32 %123, 1
  store i32 %124, ptr %7, align 4, !tbaa !10
  br label %80, !llvm.loop !319

125:                                              ; preds = %80
  store i32 1, ptr %3, align 4
  store i32 1, ptr %8, align 4
  br label %126

126:                                              ; preds = %125, %120, %111, %75, %66, %57, %49, %33
  call void @llvm.lifetime.end.p0(i64 4, ptr %7) #11
  call void @llvm.lifetime.end.p0(i64 8, ptr %6) #11
  %127 = load i32, ptr %3, align 4
  ret i32 %127
}