; Function Attrs: mustprogress uwtable
define noundef range(i32 0, 2) i32 @_ZN12duckdb_miniz23mz_zip_validate_archiveEPNS_14mz_zip_archiveEj(ptr noundef captures(address_is_null) %0, i32 noundef %1) local_unnamed_addr #8 {
  %3 = alloca i32, align 4
  %4 = alloca %"struct.duckdb_miniz::mz_zip_archive_file_stat", align 8
  %.not = icmp eq ptr %0, null
  br i1 %.not, label %_ZN12duckdb_minizL16mz_zip_set_errorEPNS_14mz_zip_archiveENS_12mz_zip_errorE.exit52, label %5

5:                                                ; preds = %2
  %6 = getelementptr inbounds nuw i8, ptr %0, i64 104
  %7 = load ptr, ptr %6, align 8, !tbaa !204
  %.not33 = icmp eq ptr %7, null
  br i1 %.not33, label %17, label %8

8:                                                ; preds = %5
  %9 = getelementptr inbounds nuw i8, ptr %0, i64 40
  %10 = load ptr, ptr %9, align 8, !tbaa !210
  %.not34 = icmp eq ptr %10, null
  br i1 %.not34, label %17, label %11

11:                                               ; preds = %8
  %12 = getelementptr inbounds nuw i8, ptr %0, i64 48
  %13 = load ptr, ptr %12, align 8, !tbaa !211
  %.not35 = icmp eq ptr %13, null
  br i1 %.not35, label %17, label %14

14:                                               ; preds = %11
  %15 = getelementptr inbounds nuw i8, ptr %0, i64 72
  %16 = load ptr, ptr %15, align 8, !tbaa !217
  %.not36 = icmp eq ptr %16, null
  br i1 %.not36, label %17, label %19

17:                                               ; preds = %14, %11, %8, %5
  %18 = getelementptr inbounds nuw i8, ptr %0, i64 28
  store i32 24, ptr %18, align 4, !tbaa !213
  br label %_ZN12duckdb_minizL16mz_zip_set_errorEPNS_14mz_zip_archiveENS_12mz_zip_errorE.exit52

19:                                               ; preds = %14
  %20 = getelementptr inbounds nuw i8, ptr %7, i64 100
  %21 = load i32, ptr %20, align 4, !tbaa !224
  %.not37 = icmp eq i32 %21, 0
  %22 = getelementptr inbounds nuw i8, ptr %0, i64 16
  %23 = load i32, ptr %22, align 8, !tbaa !230
  br i1 %.not37, label %24, label %31

24:                                               ; preds = %19
  %25 = icmp ugt i32 %23, 65535
  br i1 %25, label %_ZN12duckdb_minizL16mz_zip_set_errorEPNS_14mz_zip_archiveENS_12mz_zip_errorE.exit50, label %27

_ZN12duckdb_minizL16mz_zip_set_errorEPNS_14mz_zip_archiveENS_12mz_zip_errorE.exit50: ; preds = %24
  %26 = getelementptr inbounds nuw i8, ptr %0, i64 28
  store i32 29, ptr %26, align 4, !tbaa !213
  br label %_ZN12duckdb_minizL16mz_zip_set_errorEPNS_14mz_zip_archiveENS_12mz_zip_errorE.exit52

27:                                               ; preds = %24
  %28 = load i64, ptr %0, align 8, !tbaa !227
  %29 = icmp ugt i64 %28, 4294967295
  br i1 %29, label %_ZN12duckdb_minizL16mz_zip_set_errorEPNS_14mz_zip_archiveENS_12mz_zip_errorE.exit48, label %39

_ZN12duckdb_minizL16mz_zip_set_errorEPNS_14mz_zip_archiveENS_12mz_zip_errorE.exit48: ; preds = %27
  %30 = getelementptr inbounds nuw i8, ptr %0, i64 28
  store i32 29, ptr %30, align 4, !tbaa !213
  br label %_ZN12duckdb_minizL16mz_zip_set_errorEPNS_14mz_zip_archiveENS_12mz_zip_errorE.exit52

31:                                               ; preds = %19
  %32 = icmp eq i32 %23, -1
  br i1 %32, label %_ZN12duckdb_minizL16mz_zip_set_errorEPNS_14mz_zip_archiveENS_12mz_zip_errorE.exit46, label %34

_ZN12duckdb_minizL16mz_zip_set_errorEPNS_14mz_zip_archiveENS_12mz_zip_errorE.exit46: ; preds = %31
  %33 = getelementptr inbounds nuw i8, ptr %0, i64 28
  store i32 29, ptr %33, align 4, !tbaa !213
  br label %_ZN12duckdb_minizL16mz_zip_set_errorEPNS_14mz_zip_archiveENS_12mz_zip_errorE.exit52

34:                                               ; preds = %31
  %35 = getelementptr inbounds nuw i8, ptr %7, i64 8
  %36 = load i64, ptr %35, align 8, !tbaa !291
  %37 = icmp ugt i64 %36, 4294967294
  br i1 %37, label %_ZN12duckdb_minizL16mz_zip_set_errorEPNS_14mz_zip_archiveENS_12mz_zip_errorE.exit44, label %39

_ZN12duckdb_minizL16mz_zip_set_errorEPNS_14mz_zip_archiveENS_12mz_zip_errorE.exit44: ; preds = %34
  %38 = getelementptr inbounds nuw i8, ptr %0, i64 28
  store i32 29, ptr %38, align 4, !tbaa !213
  br label %_ZN12duckdb_minizL16mz_zip_set_errorEPNS_14mz_zip_archiveENS_12mz_zip_errorE.exit52

39:                                               ; preds = %34, %27
  %40 = getelementptr inbounds nuw i8, ptr %0, i64 16
  %.not57 = icmp eq i32 %23, 0
  br i1 %.not57, label %_ZN12duckdb_minizL16mz_zip_set_errorEPNS_14mz_zip_archiveENS_12mz_zip_errorE.exit52, label %.lr.ph

.lr.ph:                                           ; preds = %39
  %41 = and i32 %1, 4096
  %.not38 = icmp eq i32 %41, 0
  %42 = getelementptr inbounds nuw i8, ptr %4, i64 80
  br i1 %.not38, label %.lr.ph.split.us, label %.lr.ph.split

.lr.ph.split.us:                                  ; preds = %.lr.ph, %44
  %.02953.us = phi i32 [ %45, %44 ], [ 0, %.lr.ph ]
  %43 = tail call noundef i32 @_ZN12duckdb_miniz20mz_zip_validate_fileEPNS_14mz_zip_archiveEjj(ptr noundef nonnull %0, i32 noundef %.02953.us, i32 noundef %1)
  %.not42.us = icmp eq i32 %43, 0
  br i1 %.not42.us, label %_ZN12duckdb_minizL16mz_zip_set_errorEPNS_14mz_zip_archiveENS_12mz_zip_errorE.exit52, label %44

44:                                               ; preds = %.lr.ph.split.us
  %45 = add nuw i32 %.02953.us, 1
  %46 = load i32, ptr %40, align 8, !tbaa !230
  %47 = icmp ult i32 %45, %46
  br i1 %47, label %.lr.ph.split.us, label %_ZN12duckdb_minizL16mz_zip_set_errorEPNS_14mz_zip_archiveENS_12mz_zip_errorE.exit52, !llvm.loop !292

48:                                               ; preds = %69
  %indvars.iv.next = add nuw nsw i64 %indvars.iv, 1
  %49 = load i32, ptr %40, align 8, !tbaa !230
  %50 = zext i32 %49 to i64
  %51 = icmp samesign ult i64 %indvars.iv.next, %50
  br i1 %51, label %.lr.ph.split, label %_ZN12duckdb_minizL16mz_zip_set_errorEPNS_14mz_zip_archiveENS_12mz_zip_errorE.exit52, !llvm.loop !292

.lr.ph.split:                                     ; preds = %.lr.ph, %48
  %indvars.iv = phi i64 [ %indvars.iv.next, %48 ], [ 0, %.lr.ph ]
  call void @llvm.lifetime.start.p0(i64 4, ptr nonnull %3) #25
  call void @llvm.lifetime.start.p0(i64 1104, ptr nonnull %4) #25
  %52 = load ptr, ptr %6, align 8, !tbaa !204
  %.not12.i.i = icmp eq ptr %52, null
  br i1 %.not12.i.i, label %_ZN12duckdb_miniz23mz_zip_reader_file_statEPNS_14mz_zip_archiveEjPNS_24mz_zip_archive_file_statE.exit, label %53

53:                                               ; preds = %.lr.ph.split
  %54 = load ptr, ptr %52, align 8, !tbaa !235
  %55 = getelementptr inbounds nuw i8, ptr %52, i64 32
  %56 = load ptr, ptr %55, align 8, !tbaa !236
  %57 = getelementptr inbounds nuw i32, ptr %56, i64 %indvars.iv
  %58 = load i32, ptr %57, align 4, !tbaa !10
  %59 = zext i32 %58 to i64
  %60 = getelementptr inbounds nuw i8, ptr %54, i64 %59
  br label %_ZN12duckdb_miniz23mz_zip_reader_file_statEPNS_14mz_zip_archiveEjPNS_24mz_zip_archive_file_statE.exit

_ZN12duckdb_miniz23mz_zip_reader_file_statEPNS_14mz_zip_archiveEjPNS_24mz_zip_archive_file_statE.exit: ; preds = %.lr.ph.split, %53
  %.0.i.i = phi ptr [ %60, %53 ], [ null, %.lr.ph.split ]
  %61 = trunc nuw i64 %indvars.iv to i32
  %62 = call fastcc noundef range(i32 0, 2) i32 @_ZN12duckdb_minizL25mz_zip_file_stat_internalEPNS_14mz_zip_archiveEjPKhPNS_24mz_zip_archive_file_statEPi(ptr noundef nonnull %0, i32 noundef %61, ptr noundef %.0.i.i, ptr noundef nonnull %4, ptr noundef null)
  %.not39 = icmp eq i32 %62, 0
  br i1 %.not39, label %.critedge, label %63

63:                                               ; preds = %_ZN12duckdb_miniz23mz_zip_reader_file_statEPNS_14mz_zip_archiveEjPNS_24mz_zip_archive_file_statE.exit
  %64 = call noundef i32 @_ZN12duckdb_miniz28mz_zip_reader_locate_file_v2EPNS_14mz_zip_archiveEPKcS3_jPj(ptr noundef nonnull %0, ptr noundef nonnull %42, ptr noundef null, i32 noundef 0, ptr noundef nonnull %3)
  %.not40 = icmp eq i32 %64, 0
  br i1 %.not40, label %.critedge, label %65

65:                                               ; preds = %63
  %66 = load i32, ptr %3, align 4, !tbaa !10
  %67 = zext i32 %66 to i64
  %.not41 = icmp eq i64 %indvars.iv, %67
  br i1 %.not41, label %69, label %_ZN12duckdb_minizL16mz_zip_set_errorEPNS_14mz_zip_archiveENS_12mz_zip_errorE.exit

_ZN12duckdb_minizL16mz_zip_set_errorEPNS_14mz_zip_archiveENS_12mz_zip_errorE.exit: ; preds = %65
  %68 = getelementptr inbounds nuw i8, ptr %0, i64 28
  store i32 30, ptr %68, align 4, !tbaa !213
  br label %.critedge

69:                                               ; preds = %65
  call void @llvm.lifetime.end.p0(i64 1104, ptr nonnull %4) #25
  call void @llvm.lifetime.end.p0(i64 4, ptr nonnull %3) #25
  %70 = call noundef i32 @_ZN12duckdb_miniz20mz_zip_validate_fileEPNS_14mz_zip_archiveEjj(ptr noundef nonnull %0, i32 noundef %61, i32 noundef %1)
  %.not42 = icmp eq i32 %70, 0
  br i1 %.not42, label %_ZN12duckdb_minizL16mz_zip_set_errorEPNS_14mz_zip_archiveENS_12mz_zip_errorE.exit52, label %48

.critedge:                                        ; preds = %63, %_ZN12duckdb_miniz23mz_zip_reader_file_statEPNS_14mz_zip_archiveEjPNS_24mz_zip_archive_file_statE.exit, %_ZN12duckdb_minizL16mz_zip_set_errorEPNS_14mz_zip_archiveENS_12mz_zip_errorE.exit
  call void @llvm.lifetime.end.p0(i64 1104, ptr nonnull %4) #25
  call void @llvm.lifetime.end.p0(i64 4, ptr nonnull %3) #25
  br label %_ZN12duckdb_minizL16mz_zip_set_errorEPNS_14mz_zip_archiveENS_12mz_zip_errorE.exit52

_ZN12duckdb_minizL16mz_zip_set_errorEPNS_14mz_zip_archiveENS_12mz_zip_errorE.exit52: ; preds = %69, %48, %.lr.ph.split.us, %44, %39, %17, %2, %.critedge, %_ZN12duckdb_minizL16mz_zip_set_errorEPNS_14mz_zip_archiveENS_12mz_zip_errorE.exit44, %_ZN12duckdb_minizL16mz_zip_set_errorEPNS_14mz_zip_archiveENS_12mz_zip_errorE.exit46, %_ZN12duckdb_minizL16mz_zip_set_errorEPNS_14mz_zip_archiveENS_12mz_zip_errorE.exit48, %_ZN12duckdb_minizL16mz_zip_set_errorEPNS_14mz_zip_archiveENS_12mz_zip_errorE.exit50
  %.030 = phi i32 [ 0, %_ZN12duckdb_minizL16mz_zip_set_errorEPNS_14mz_zip_archiveENS_12mz_zip_errorE.exit46 ], [ 0, %_ZN12duckdb_minizL16mz_zip_set_errorEPNS_14mz_zip_archiveENS_12mz_zip_errorE.exit44 ], [ 0, %_ZN12duckdb_minizL16mz_zip_set_errorEPNS_14mz_zip_archiveENS_12mz_zip_errorE.exit50 ], [ 0, %_ZN12duckdb_minizL16mz_zip_set_errorEPNS_14mz_zip_archiveENS_12mz_zip_errorE.exit48 ], [ 0, %.critedge ], [ 0, %2 ], [ 0, %17 ], [ 1, %39 ], [ 0, %.lr.ph.split.us ], [ 1, %44 ], [ 0, %69 ], [ 1, %48 ]
  ret i32 %.030
}